target datalayout = "e-m:e-p270:32:32-p271:32:32-p272:64:64-i64:64-i128:128-f80:128-n8:16:32:64-S128"
target triple = "x86_64-pc-linux-gnu"

%struct._h248_curr_info_t = type { ptr, ptr, ptr, ptr, ptr, ptr, ptr, ptr, ptr, ptr }
%struct._asn1_ctx_t = type { i32, i32, i8, ptr, ptr, ptr, ptr, ptr, %struct.anon.2, %struct.anon.5, %struct.anon.6, ptr }
%struct.anon.2 = type { i32, i8, i8, i8, ptr, ptr, i32, i32, ptr, ptr, ptr, %union.anon }
%union.anon = type { %struct.anon.3 }
%struct.anon.3 = type { ptr }
%struct.anon.5 = type { ptr, ptr, ptr }
%struct.anon.6 = type { i32, i8, ptr, i32, i32, ptr, ptr, ptr, %union.anon.7 }
%union.anon.7 = type { %struct.anon.8 }
%struct.anon.8 = type { ptr }

@hf_h248_auditValueReplyV1 = internal global i32 0, align 4
@ett_h248_AuditReply = internal global i32 0, align 4
@ett_h248_AuditReplyV1 = internal global i32 0, align 4
@keep_persistent_data = internal global i32 0, align 4
@h248_tap = internal global i32 0, align 4
@curr_info = internal global %struct._h248_curr_info_t zeroinitializer, align 8
@h248_version = internal global i32 0, align 4

; Function Attrs: nounwind uwtable
define internal i32 @dissect_h248_AuditReplyV1(i1 noundef zeroext %0, ptr noundef %1, i32 noundef %2, ptr noundef %3, ptr noundef %4, i32 noundef %5) #0 {
  %7 = alloca i8, align 1
  %8 = alloca ptr, align 8
  %9 = alloca i32, align 4
  %10 = alloca ptr, align 8
  %11 = alloca ptr, align 8
  %12 = alloca i32, align 4
  %13 = zext i1 %0 to i8
  store i8 %13, ptr %7, align 1
  store ptr %1, ptr %8, align 8
  store i32 %2, ptr %9, align 4
  store ptr %3, ptr %10, align 8
  store ptr %4, ptr %11, align 8
  store i32 %5, ptr %12, align 4
  %14 = load i8, ptr %7, align 1
  %15 = trunc i8 %14 to i1
  %16 = load ptr, ptr %10, align 8
  %17 = load ptr, ptr %11, align 8
  %18 = load ptr, ptr %8, align 8
  %19 = load i32, ptr %9, align 4
  %20 = load i32, ptr @hf_h248_auditValueReplyV1, align 4
  %21 = load i32, ptr @ett_h248_AuditReplyV1, align 4
  %22 = call i32 @dissect_ber_sequence(i1 noundef zeroext %15, ptr noundef %16, ptr noundef %17, ptr noundef %18, i32 noundef %19, ptr noundef @AuditReplyV1_sequence, i32 noundef %20, i32 noundef %21)
  store i32 %22, ptr %9, align 4
  %23 = load i32, ptr %9, align 4
  ret i32 %23
}

; Function Attrs: nounwind uwtable
define internal i32 @dissect_h248_AuditReply(i1 noundef zeroext %0, ptr noundef %1, i32 noundef %2, ptr noundef %3, ptr noundef %4, i32 noundef %5) #0 {
  %7 = alloca i8, align 1
  %8 = alloca ptr, align 8
  %9 = alloca i32, align 4
  %10 = alloca ptr, align 8
  %11 = alloca ptr, align 8
  %12 = alloca i32, align 4
  %13 = zext i1 %0 to i8
  store i8 %13, ptr %7, align 1
  store ptr %1, ptr %8, align 8
  store i32 %2, ptr %9, align 4
  store ptr %3, ptr %10, align 8
  store ptr %4, ptr %11, align 8
  store i32 %5, ptr %12, align 4
  %14 = load ptr, ptr %10, align 8
  %15 = load ptr, ptr %11, align 8
  %16 = load ptr, ptr %8, align 8
  %17 = load i32, ptr %9, align 4
  %18 = load i32, ptr %12, align 4
  %19 = load i32, ptr @ett_h248_AuditReply, align 4
  %20 = call i32 @dissect_ber_choice(ptr noundef %14, ptr noundef %15, ptr noundef %16, i32 noundef %17, ptr noundef @AuditReply_choice, i32 noundef %18, i32 noundef %19, ptr noundef null)
  store i32 %20, ptr %9, align 4
  %21 = load i32, ptr %9, align 4
  ret i32 %21
}

; Function Attrs: nounwind uwtable
define internal i32 @dissect_h248_T_auditValueReply(i1 noundef zeroext %0, ptr noundef %1, i32 noundef %2, ptr noundef %3, ptr noundef %4, i32 noundef %5) #0 {
  %7 = alloca i8, align 1
  %8 = alloca ptr, align 8
  %9 = alloca i32, align 4
  %10 = alloca ptr, align 8
  %11 = alloca ptr, align 8
  %12 = alloca i32, align 4
  %13 = zext i1 %0 to i8
  store i8 %13, ptr %7, align 1
  store ptr %1, ptr %8, align 8
  store i32 %2, ptr %9, align 4
  store ptr %3, ptr %10, align 8
  store ptr %4, ptr %11, align 8
  store i32 %5, ptr %12, align 4
  %14 = getelementptr inbounds %struct._h248_curr_info_t, ptr @curr_info, i32 0, i32 2
  %15 = load ptr, ptr %14, align 8
  %16 = getelementptr inbounds %struct._h248_curr_info_t, ptr @curr_info, i32 0, i32 1
  %17 = load ptr, ptr %16, align 8
  %18 = load ptr, ptr @curr_info, align 8
  %19 = load i32, ptr %9, align 4
  %20 = load ptr, ptr %10, align 8
  %21 = getelementptr inbounds %struct._asn1_ctx_t, ptr %20, i32 0, i32 3
  %22 = load ptr, ptr %21, align 8
  %23 = load i32, ptr @keep_persistent_data, align 4
  %24 = call ptr @gcp_cmd(ptr noundef %15, ptr noundef %17, ptr noundef %18, i32 noundef 17, i32 noundef %19, ptr noundef %22, i32 noundef %23)
  %25 = getelementptr inbounds %struct._h248_curr_info_t, ptr @curr_info, i32 0, i32 4
  store ptr %24, ptr %25, align 8
  br label %26

26:                                               ; preds = %6
  %27 = load i32, ptr @keep_persistent_data, align 4
  %28 = icmp ne i32 %27, 0
  br i1 %28, label %29, label %40

29:                                               ; preds = %26
  %30 = getelementptr inbounds %struct._h248_curr_info_t, ptr @curr_info, i32 0, i32 4
  %31 = load ptr, ptr %30, align 8
  %32 = icmp ne ptr %31, null
  br i1 %32, label %33, label %40

33:                                               ; preds = %29
  %34 = load i32, ptr @h248_tap, align 4
  %35 = load ptr, ptr %10, align 8
  %36 = getelementptr inbounds %struct._asn1_ctx_t, ptr %35, i32 0, i32 3
  %37 = load ptr, ptr %36, align 8
  %38 = getelementptr inbounds %struct._h248_curr_info_t, ptr @curr_info, i32 0, i32 4
  %39 = load ptr, ptr %38, align 8
  call void @tap_queue_packet(i32 noundef %34, ptr noundef %37, ptr noundef %39)
  br label %40

40:                                               ; preds = %33, %29, %26
  br label %41

41:                                               ; preds = %40
  %42 = load i32, ptr @h248_version, align 4
  %43 = icmp ugt i32 %42, 1
  br i1 %43, label %44, label %53

44:                                               ; preds = %41
  %45 = load i8, ptr %7, align 1
  %46 = trunc i8 %45 to i1
  %47 = load ptr, ptr %8, align 8
  %48 = load i32, ptr %9, align 4
  %49 = load ptr, ptr %10, align 8
  %50 = load ptr, ptr %11, align 8
  %51 = load i32, ptr %12, align 4
  %52 = call i32 @dissect_h248_AuditReply(i1 noundef zeroext %46, ptr noundef %47, i32 noundef %48, ptr noundef %49, ptr noundef %50, i32 noundef %51)
  store i32 %52, ptr %9, align 4
  br label %62

53:                                               ; preds = %41
  %54 = load i8, ptr %7, align 1
  %55 = trunc i8 %54 to i1
  %56 = load ptr, ptr %8, align 8
  %57 = load i32, ptr %9, align 4
  %58 = load ptr, ptr %10, align 8
  %59 = load ptr, ptr %11, align 8
  %60 = load i32, ptr %12, align 4
  %61 = call i32 @dissect_h248_AuditReplyV1(i1 noundef zeroext %55, ptr noundef %56, i32 noundef %57, ptr noundef %58, ptr noundef %59, i32 noundef %60)
  store i32 %61, ptr %9, align 4
  br label %62

62:                                               ; preds = %53, %44
  %63 = load i32, ptr %9, align 4
  ret i32 %63
}